; Function Attrs: mustprogress nounwind uwtable
define dso_local void @_ZNK4llvm15TargetInstrInfo26genAlternativeCodeSequenceERNS_12MachineInstrEjRNS_15SmallVectorImplIPS1_EES6_RNS_8DenseMapIjjNS_12DenseMapInfoIjvEENS_6detail12DenseMapPairIjjEEEE(ptr noundef nonnull align 8 dereferenceable(80) %0, ptr noundef nonnull align 8 dereferenceable(70) %1, i32 noundef %2, ptr noundef nonnull align 8 dereferenceable(16) %3, ptr noundef nonnull align 8 dereferenceable(16) %4, ptr noundef nonnull align 8 dereferenceable(20) %5) unnamed_addr #0 align 2 {
  %7 = alloca %"struct.std::array.289", align 4
  %8 = alloca %"class.llvm::ArrayRef.190", align 8
  %9 = tail call noundef ptr @_ZNK4llvm12MachineInstr5getMFEv(ptr noundef nonnull align 8 dereferenceable(70) %1) #26
  %10 = getelementptr inbounds nuw i8, ptr %9, i64 32
  %11 = load ptr, ptr %10, align 8
  %12 = load ptr, ptr %0, align 8
  %13 = getelementptr inbounds i8, ptr %12, i64 600
  %14 = load ptr, ptr %13, align 8
  call void %14(ptr noundef nonnull align 8 dereferenceable(80) %0, ptr noundef nonnull align 8 dereferenceable(70) %1, i32 noundef %2, ptr noundef nonnull align 4 dereferenceable(20) %7) #26
  %15 = load i32, ptr %7, align 4
  %16 = getelementptr inbounds nuw i8, ptr %1, i64 32
  %17 = load ptr, ptr %16, align 8
  %18 = zext i32 %15 to i64
  %19 = getelementptr inbounds %"class.llvm::MachineOperand", ptr %17, i64 %18, i32 1
  %20 = load i32, ptr %19, align 4
  %21 = call noundef ptr @_ZNK4llvm19MachineRegisterInfo16getUniqueVRegDefENS_8RegisterE(ptr noundef nonnull align 8 dereferenceable(512) %11, i32 %20) #26
  %22 = getelementptr inbounds nuw i8, ptr %21, i64 24
  %23 = load ptr, ptr %22, align 8
  %24 = getelementptr inbounds nuw i8, ptr %1, i64 24
  %25 = load ptr, ptr %24, align 8
  %.not = icmp eq ptr %23, %25
  br i1 %.not, label %26, label %28

26:                                               ; preds = %6
  store ptr %7, ptr %8, align 8
  %27 = getelementptr inbounds nuw i8, ptr %8, i64 8
  store i64 5, ptr %27, align 8
  call void @_ZNK4llvm15TargetInstrInfo14reassociateOpsERNS_12MachineInstrES2_jRNS_15SmallVectorImplIPS1_EES6_NS_8ArrayRefIjEERNS_8DenseMapIjjNS_12DenseMapInfoIjvEENS_6detail12DenseMapPairIjjEEEE(ptr noundef nonnull align 8 dereferenceable(80) %0, ptr noundef nonnull align 8 dereferenceable(70) %1, ptr noundef nonnull align 8 dereferenceable(70) %21, i32 noundef %2, ptr noundef nonnull align 8 dereferenceable(16) %3, ptr noundef nonnull align 8 dereferenceable(16) %4, ptr noundef nonnull byval(%"class.llvm::ArrayRef.190") align 8 %8, ptr noundef nonnull align 8 dereferenceable(20) %5)
  br label %28

28:                                               ; preds = %6, %26
  ret void
}